target datalayout = "e-m:e-p270:32:32-p271:32:32-p272:64:64-i64:64-i128:128-f80:128-n8:16:32:64-S128"
target triple = "x86_64-pc-linux-gnu"

%struct.slurm_conf_t = type { i64, ptr, i16, ptr, ptr, ptr, ptr, ptr, i16, ptr, ptr, ptr, ptr, ptr, ptr, ptr, i16, ptr, ptr, ptr, ptr, i16, ptr, ptr, ptr, i64, ptr, ptr, ptr, ptr, i16, ptr, ptr, i16, i32, ptr, i32, ptr, i32, i32, ptr, ptr, i64, i64, ptr, i16, i16, ptr, i32, i32, ptr, i32, ptr, i32, i16, i16, i16, ptr, i16, i16, ptr, ptr, i32, i16, i16, ptr, i32, i16, ptr, ptr, ptr, ptr, i16, ptr, ptr, ptr, ptr, i32, ptr, ptr, ptr, ptr, i16, i16, ptr, i32, i32, i32, i16, i16, ptr, ptr, i16, ptr, ptr, i32, i32, i32, i32, i32, i64, i32, i32, i16, ptr, ptr, i32, ptr, ptr, ptr, i16, i32, ptr, ptr, i16, ptr, ptr, i32, i16, ptr, ptr, ptr, ptr, i32, i32, i16, i16, i32, ptr, i16, ptr, i32, i32, i32, i32, i32, i32, ptr, i16, ptr, ptr, i32, i16, ptr, i32, i16, i16, ptr, ptr, ptr, i16, ptr, ptr, ptr, ptr, i16, i16, ptr, i16, ptr, i16, ptr, i16, ptr, i16, ptr, ptr, ptr, ptr, i16, ptr, ptr, ptr, i32, ptr, i32, ptr, ptr, i16, ptr, ptr, i32, i16, ptr, ptr, i16, i16, ptr, i16, ptr, ptr, ptr, i32, ptr, i16, i16, ptr, ptr, ptr, ptr, ptr, ptr, ptr, ptr, i16, i32, i16, ptr, ptr, ptr, ptr, i32, ptr, ptr, ptr, i16, ptr, ptr, ptr, i16, ptr, i16, ptr, i16, i16, ptr }
%union.pthread_mutex_t = type { %struct.__pthread_mutex_s }
%struct.__pthread_mutex_s = type { i32, i32, i32, i32, i32, i16, i16, %struct.__pthread_internal_list }
%struct.__pthread_internal_list = type { ptr, ptr }

@default_job_comp_loc = dso_local constant [27 x i8] c"/var/log/slurm_jobcomp.log\00", align 16
@job_comp_fd = internal global i32 -1, align 4
@log_name = internal global ptr null, align 8
@slurm_conf = external global %struct.slurm_conf_t, align 8
@file_lock = internal global %union.pthread_mutex_t zeroinitializer, align 8
@.str = private unnamed_addr constant [29 x i8] c"%s: pthread_mutex_lock(): %m\00", align 1
@__func__.jobcomp_p_set_location = private unnamed_addr constant [23 x i8] c"jobcomp_p_set_location\00", align 1
@.str.1 = private unnamed_addr constant [12 x i8] c"open %s: %m\00", align 1
@.str.2 = private unnamed_addr constant [31 x i8] c"%s: pthread_mutex_unlock(): %m\00", align 1

; Function Attrs: nounwind uwtable
define dso_local i32 @jobcomp_p_set_location() #0 {
  %1 = alloca i32, align 4
  %2 = alloca i32, align 4
  %3 = alloca i32, align 4
  call void @llvm.lifetime.start.p0(i64 4, ptr %1) #7
  store i32 0, ptr %1, align 4
  %4 = load ptr, ptr getelementptr inbounds nuw (%struct.slurm_conf_t, ptr @slurm_conf, i32 0, i32 74), align 8
  %5 = icmp ne ptr %4, null
  br i1 %5, label %8, label %6

6:                                                ; preds = %0
  %7 = call ptr @slurm_xstrdup(ptr noundef @default_job_comp_loc)
  store ptr %7, ptr getelementptr inbounds nuw (%struct.slurm_conf_t, ptr @slurm_conf, i32 0, i32 74), align 8
  br label %8

8:                                                ; preds = %6, %0
  call void @slurm_xfree(ptr noundef @log_name)
  %9 = load ptr, ptr getelementptr inbounds nuw (%struct.slurm_conf_t, ptr @slurm_conf, i32 0, i32 74), align 8
  %10 = call ptr @slurm_xstrdup(ptr noundef %9)
  store ptr %10, ptr @log_name, align 8
  br label %11

11:                                               ; preds = %8
  call void @llvm.lifetime.start.p0(i64 4, ptr %2) #7
  %12 = call i32 @pthread_mutex_lock(ptr noundef @file_lock) #7
  store i32 %12, ptr %2, align 4
  %13 = load i32, ptr %2, align 4
  %14 = icmp ne i32 %13, 0
  br i1 %14, label %15, label %18

15:                                               ; preds = %11
  %16 = load i32, ptr %2, align 4
  %17 = call ptr @__errno_location() #8
  store i32 %16, ptr %17, align 4
  call void (ptr, ...) @slurm_fatal_abort(ptr noundef @.str, ptr noundef @__func__.jobcomp_p_set_location) #9
  unreachable

18:                                               ; preds = %11
  call void @llvm.lifetime.end.p0(i64 4, ptr %2) #7
  br label %19

19:                                               ; preds = %18
  br label %20

20:                                               ; preds = %19
  %21 = load i32, ptr @job_comp_fd, align 4
  %22 = icmp sge i32 %21, 0
  br i1 %22, label %23, label %26

23:                                               ; preds = %20
  %24 = load i32, ptr @job_comp_fd, align 4
  %25 = call i32 @close(i32 noundef %24)
  br label %26

26:                                               ; preds = %23, %20
  %27 = load ptr, ptr @log_name, align 8
  %28 = call i32 (ptr, i32, ...) @open(ptr noundef %27, i32 noundef 1089, i32 noundef 420)
  store i32 %28, ptr @job_comp_fd, align 4
  %29 = load i32, ptr @job_comp_fd, align 4
  %30 = icmp eq i32 %29, -1
  br i1 %30, label %31, label %33

31:                                               ; preds = %26
  %32 = load ptr, ptr @log_name, align 8
  call void (ptr, ...) @slurm_fatal(ptr noundef @.str.1, ptr noundef %32) #9
  unreachable

33:                                               ; preds = %26
  %34 = load i32, ptr @job_comp_fd, align 4
  %35 = call i32 @fchmod(i32 noundef %34, i32 noundef 420) #7
  br label %36

36:                                               ; preds = %33
  br label %37

37:                                               ; preds = %36
  call void @llvm.lifetime.start.p0(i64 4, ptr %3) #7
  %38 = call i32 @pthread_mutex_unlock(ptr noundef @file_lock) #7
  store i32 %38, ptr %3, align 4
  %39 = load i32, ptr %3, align 4
  %40 = icmp ne i32 %39, 0
  br i1 %40, label %41, label %44

41:                                               ; preds = %37
  %42 = load i32, ptr %3, align 4
  %43 = call ptr @__errno_location() #8
  store i32 %42, ptr %43, align 4
  call void (ptr, ...) @slurm_fatal_abort(ptr noundef @.str.2, ptr noundef @__func__.jobcomp_p_set_location) #9
  unreachable

44:                                               ; preds = %37
  call void @llvm.lifetime.end.p0(i64 4, ptr %3) #7
  br label %45

45:                                               ; preds = %44
  br label %46

46:                                               ; preds = %45
  %47 = load i32, ptr %1, align 4
  call void @llvm.lifetime.end.p0(i64 4, ptr %1) #7
  ret i32 %47
}