; Function Attrs: nounwind uwtable
define dso_local noundef i32 @jobcomp_p_set_location() local_unnamed_addr #1 {
  %1 = load ptr, ptr getelementptr inbounds nuw (i8, ptr @slurm_conf, i64 512), align 8
  %.not = icmp eq ptr %1, null
  br i1 %.not, label %2, label %4

2:                                                ; preds = %0
  %3 = tail call ptr @slurm_xstrdup(ptr noundef nonnull @default_job_comp_loc) #11
  store ptr %3, ptr getelementptr inbounds nuw (i8, ptr @slurm_conf, i64 512), align 8
  br label %4

4:                                                ; preds = %2, %0
  tail call void @slurm_xfree(ptr noundef nonnull @log_name) #11
  %5 = load ptr, ptr getelementptr inbounds nuw (i8, ptr @slurm_conf, i64 512), align 8
  %6 = tail call ptr @slurm_xstrdup(ptr noundef %5) #11
  store ptr %6, ptr @log_name, align 8
  %7 = tail call i32 @pthread_mutex_lock(ptr noundef nonnull @file_lock) #11
  %.not8 = icmp eq i32 %7, 0
  br i1 %.not8, label %10, label %8

8:                                                ; preds = %4
  %9 = tail call ptr @__errno_location() #12
  store i32 %7, ptr %9, align 4
  tail call void (ptr, ...) @slurm_fatal_abort(ptr noundef nonnull @.str, ptr noundef nonnull @__func__.jobcomp_p_set_location) #13
  unreachable

10:                                               ; preds = %4
  %11 = load i32, ptr @job_comp_fd, align 4
  %12 = icmp sgt i32 %11, -1
  br i1 %12, label %13, label %15

13:                                               ; preds = %10
  %14 = tail call i32 @close(i32 noundef %11) #11
  br label %15

15:                                               ; preds = %13, %10
  %16 = load ptr, ptr @log_name, align 8
  %17 = tail call i32 (ptr, i32, ...) @open(ptr noundef %16, i32 noundef 1089, i32 noundef 420) #11
  store i32 %17, ptr @job_comp_fd, align 4
  %18 = icmp eq i32 %17, -1
  br i1 %18, label %19, label %21

19:                                               ; preds = %15
  %20 = load ptr, ptr @log_name, align 8
  tail call void (ptr, ...) @slurm_fatal(ptr noundef nonnull @.str.1, ptr noundef %20) #13
  unreachable

21:                                               ; preds = %15
  %22 = tail call i32 @fchmod(i32 noundef %17, i32 noundef 420) #11
  %23 = tail call i32 @pthread_mutex_unlock(ptr noundef nonnull @file_lock) #11
  %.not9 = icmp eq i32 %23, 0
  br i1 %.not9, label %26, label %24

24:                                               ; preds = %21
  %25 = tail call ptr @__errno_location() #12
  store i32 %23, ptr %25, align 4
  tail call void (ptr, ...) @slurm_fatal_abort(ptr noundef nonnull @.str.2, ptr noundef nonnull @__func__.jobcomp_p_set_location) #13
  unreachable

26:                                               ; preds = %21
  ret i32 0
}